target datalayout = "e-m:e-p270:32:32-p271:32:32-p272:64:64-i64:64-i128:128-f80:128-n8:16:32:64-S128"
target triple = "x86_64-pc-linux-gnu"

%"class.icu_77::UnicodeString" = type { %"class.icu_77::Replaceable", %"union.icu_77::UnicodeString::StackBufferOrFields" }
%"class.icu_77::Replaceable" = type { %"class.icu_77::UObject" }
%"class.icu_77::UObject" = type { ptr }
%"union.icu_77::UnicodeString::StackBufferOrFields" = type { %struct.anon.3, [32 x i8] }
%struct.anon.3 = type { i16, i32, i32, ptr }
%"class.icu_77::RegionNameEnumeration" = type { %"class.icu_77::StringEnumeration.base", i32, ptr }
%"class.icu_77::StringEnumeration.base" = type <{ %"class.icu_77::UObject", %"class.icu_77::UnicodeString", [32 x i8], ptr, i32 }>

; Function Attrs: mustprogress nounwind uwtable
define void @_ZN6icu_7721RegionNameEnumerationD2Ev(ptr noundef nonnull align 8 dereferenceable(128) %0) unnamed_addr #0 align 2 {
  %2 = alloca ptr, align 8
  store ptr %0, ptr %2, align 8, !tbaa !23
  %3 = load ptr, ptr %2, align 8
  store ptr getelementptr inbounds inrange(-16, 88) ({ [13 x ptr] }, ptr @_ZTVN6icu_7721RegionNameEnumerationE, i32 0, i32 0, i32 2), ptr %3, align 8, !tbaa !96
  %4 = getelementptr inbounds nuw %"class.icu_77::RegionNameEnumeration", ptr %3, i32 0, i32 2
  %5 = load ptr, ptr %4, align 8, !tbaa !137
  %6 = icmp eq ptr %5, null
  br i1 %6, label %11, label %7

7:                                                ; preds = %1
  %8 = load ptr, ptr %5, align 8, !tbaa !96
  %9 = getelementptr inbounds ptr, ptr %8, i64 1
  %10 = load ptr, ptr %9, align 8
  call void %10(ptr noundef nonnull align 8 dereferenceable(40) %5) #12
  br label %11

11:                                               ; preds = %7, %1
  call void @_ZN6icu_7717StringEnumerationD2Ev(ptr noundef nonnull align 8 dereferenceable(116) %3) #12
  ret void
}