; Function Attrs: mustprogress nounwind uwtable
define void @_ZN6icu_7721RegionNameEnumerationD2Ev(ptr noundef nonnull align 8 dereferenceable(128) initializes((0, 8)) %0) unnamed_addr #0 align 2 {
  store ptr getelementptr inbounds nuw inrange(-16, 88) (i8, ptr @_ZTVN6icu_7721RegionNameEnumerationE, i64 16), ptr %0, align 8, !tbaa !26
  %2 = getelementptr inbounds nuw i8, ptr %0, i64 120
  %3 = load ptr, ptr %2, align 8, !tbaa !108
  %4 = icmp eq ptr %3, null
  br i1 %4, label %9, label %5

5:                                                ; preds = %1
  %6 = load ptr, ptr %3, align 8, !tbaa !26
  %7 = getelementptr inbounds nuw i8, ptr %6, i64 8
  %8 = load ptr, ptr %7, align 8
  tail call void %8(ptr noundef nonnull align 8 dereferenceable(40) %3) #19
  br label %9

9:                                                ; preds = %5, %1
  tail call void @_ZN6icu_7717StringEnumerationD2Ev(ptr noundef nonnull align 8 dereferenceable(116) %0) #19
  ret void
}